target datalayout = "e-m:e-p270:32:32-p271:32:32-p272:64:64-i64:64-i128:128-f80:128-n8:16:32:64-S128"
target triple = "x86_64-pc-linux-gnu"

%"class.llvm::SmallVectorBase" = type { ptr, i32, i32 }
%"class.clang::SourceLocation" = type { i32 }
%"class.clang::format::AnnotatedLine" = type { ptr, ptr, %"class.llvm::SmallVector.27", i32, i32, i32, i64, i64, i8, i8, i8, i8, i8, i8, i8, i8, i8, i8, i8, i8, i32 }
%"class.llvm::SmallVector.27" = type { %"class.llvm::SmallVectorImpl" }
%"class.llvm::SmallVectorImpl" = type { %"class.llvm::SmallVectorTemplateBase" }
%"class.llvm::SmallVectorTemplateBase" = type { %"class.llvm::SmallVectorTemplateCommon" }
%"class.llvm::SmallVectorTemplateCommon" = type { %"class.llvm::SmallVectorBase" }
%"struct.clang::format::FormatToken" = type <{ %"class.clang::Token", %"class.llvm::StringRef", %"class.std::shared_ptr.29", %"class.clang::SourceRange", i8, i16, i8, i32, i32, i32, i32, i32, i32, i32, i32, i32, i16, [2 x i8], i32, i32, i32, i32, i32, i32, i32, i32, i32, i32, [4 x i8], %"class.llvm::SmallVector.32", i32, i32, ptr, ptr, ptr, ptr, i8, i8, i8, i8, i8, i8, [2 x i8], %"class.llvm::SmallVector.37", %"class.std::optional.39", i8, [7 x i8] }>
%"class.clang::Token" = type <{ i32, i32, ptr, i16, i16, [4 x i8] }>
%"class.llvm::StringRef" = type { ptr, i64 }
%"class.std::shared_ptr.29" = type { %"class.std::__shared_ptr.30" }
%"class.std::__shared_ptr.30" = type { ptr, %"class.std::__shared_count" }
%"class.std::__shared_count" = type { ptr }
%"class.clang::SourceRange" = type { %"class.clang::SourceLocation", %"class.clang::SourceLocation" }
%"class.llvm::SmallVector.32" = type { %"class.llvm::SmallVectorImpl.33", %"struct.llvm::SmallVectorStorage.36" }
%"class.llvm::SmallVectorImpl.33" = type { %"class.llvm::SmallVectorTemplateBase.34" }
%"class.llvm::SmallVectorTemplateBase.34" = type { %"class.llvm::SmallVectorTemplateCommon.35" }
%"class.llvm::SmallVectorTemplateCommon.35" = type { %"class.llvm::SmallVectorBase" }
%"struct.llvm::SmallVectorStorage.36" = type { [16 x i8] }
%"class.llvm::SmallVector.37" = type { %"class.llvm::SmallVectorImpl", %"struct.llvm::SmallVectorStorage.38" }
%"struct.llvm::SmallVectorStorage.38" = type { [8 x i8] }
%"class.std::optional.39" = type { %"struct.std::_Optional_base.40" }
%"struct.std::_Optional_base.40" = type { %"struct.std::_Optional_payload.42" }
%"struct.std::_Optional_payload.42" = type { %"struct.std::_Optional_payload.base.51", [7 x i8] }
%"struct.std::_Optional_payload.base.51" = type { %"struct.std::_Optional_payload_base.base.50" }
%"struct.std::_Optional_payload_base.base.50" = type <{ %"union.std::_Optional_payload_base<clang::format::MacroExpansion>::_Storage", i8 }>
%"union.std::_Optional_payload_base<clang::format::MacroExpansion>::_Storage" = type { %"struct.clang::format::MacroExpansion" }
%"struct.clang::format::MacroExpansion" = type { i32, %"class.llvm::SmallVector.45", i32, i32 }
%"class.llvm::SmallVector.45" = type { %"class.llvm::SmallVectorImpl.46", %"struct.llvm::SmallVectorStorage.49" }
%"class.llvm::SmallVectorImpl.46" = type { %"class.llvm::SmallVectorTemplateBase.47" }
%"class.llvm::SmallVectorTemplateBase.47" = type { %"class.llvm::SmallVectorTemplateCommon.48" }
%"class.llvm::SmallVectorTemplateCommon.48" = type { %"class.llvm::SmallVectorBase" }
%"struct.llvm::SmallVectorStorage.49" = type { [8 x i8] }

; Function Attrs: mustprogress nounwind uwtable
define linkonce_odr hidden noundef zeroext i8 @_ZNK5clang6format11FormatToken7getTypeEv(ptr noundef nonnull align 8 dereferenceable(305) %0) #0 comdat align 2 {
  %2 = alloca ptr, align 8
  store ptr %0, ptr %2, align 8
  %3 = load ptr, ptr %2, align 8
  %4 = getelementptr inbounds nuw %"struct.clang::format::FormatToken", ptr %3, i32 0, i32 6
  %5 = load i8, ptr %4, align 1
  ret i8 %5
}

; Function Attrs: mustprogress nounwind uwtable
define linkonce_odr hidden noundef zeroext i1 @_ZNK5clang6format11FormatToken2isENS0_9TokenTypeE(ptr noundef nonnull align 8 dereferenceable(305) %0, i8 noundef zeroext %1) #0 comdat align 2 {
  %3 = alloca ptr, align 8
  %4 = alloca i8, align 1
  store ptr %0, ptr %3, align 8
  store i8 %1, ptr %4, align 1
  %5 = load ptr, ptr %3, align 8
  %6 = call noundef zeroext i8 @_ZNK5clang6format11FormatToken7getTypeEv(ptr noundef nonnull align 8 dereferenceable(305) %5)
  %7 = zext i8 %6 to i32
  %8 = load i8, ptr %4, align 1
  %9 = zext i8 %8 to i32
  %10 = icmp eq i32 %7, %9
  ret i1 %10
}

; Function Attrs: mustprogress nounwind uwtable
define linkonce_odr hidden noundef zeroext i1 @_ZNK5clang5Token2isENS_3tok9TokenKindE(ptr noundef nonnull align 8 dereferenceable(20) %0, i16 noundef zeroext %1) #0 comdat align 2 {
  %3 = alloca ptr, align 8
  %4 = alloca i16, align 2
  store ptr %0, ptr %3, align 8
  store i16 %1, ptr %4, align 2
  %5 = load ptr, ptr %3, align 8
  %6 = getelementptr inbounds nuw %"class.clang::Token", ptr %5, i32 0, i32 3
  %7 = load i16, ptr %6, align 8
  %8 = zext i16 %7 to i32
  %9 = load i16, ptr %4, align 2
  %10 = zext i16 %9 to i32
  %11 = icmp eq i32 %8, %10
  ret i1 %11
}

; Function Attrs: mustprogress nounwind uwtable
define linkonce_odr hidden noundef zeroext i1 @_ZNK5clang6format11FormatToken22startsSequenceInternalINS_3tok9TokenKindEEEbT_(ptr noundef nonnull align 8 dereferenceable(305) %0, i16 noundef zeroext %1) #0 comdat align 2 {
  %3 = alloca i1, align 1
  %4 = alloca ptr, align 8
  %5 = alloca i16, align 2
  store ptr %0, ptr %4, align 8
  store i16 %1, ptr %5, align 2
  %6 = load ptr, ptr %4, align 8
  %7 = call noundef zeroext i1 @_ZNK5clang6format11FormatToken2isENS_3tok9TokenKindE(ptr noundef nonnull align 8 dereferenceable(305) %6, i16 noundef zeroext 4)
  br i1 %7, label %8, label %17

8:                                                ; preds = %2
  %9 = getelementptr inbounds nuw %"struct.clang::format::FormatToken", ptr %6, i32 0, i32 35
  %10 = load ptr, ptr %9, align 8
  %11 = icmp ne ptr %10, null
  br i1 %11, label %12, label %17

12:                                               ; preds = %8
  %13 = getelementptr inbounds nuw %"struct.clang::format::FormatToken", ptr %6, i32 0, i32 35
  %14 = load ptr, ptr %13, align 8
  %15 = load i16, ptr %5, align 2
  %16 = call noundef zeroext i1 @_ZNK5clang6format11FormatToken22startsSequenceInternalINS_3tok9TokenKindEEEbT_(ptr noundef nonnull align 8 dereferenceable(305) %14, i16 noundef zeroext %15)
  store i1 %16, ptr %3, align 1
  br label %20

17:                                               ; preds = %8, %2
  %18 = load i16, ptr %5, align 2
  %19 = call noundef zeroext i1 @_ZNK5clang6format11FormatToken2isENS_3tok9TokenKindE(ptr noundef nonnull align 8 dereferenceable(305) %6, i16 noundef zeroext %18)
  store i1 %19, ptr %3, align 1
  br label %20

20:                                               ; preds = %17, %12
  %21 = load i1, ptr %3, align 1
  ret i1 %21
}

; Function Attrs: mustprogress nounwind uwtable
define linkonce_odr hidden noundef zeroext i1 @_ZNK5clang6format11FormatToken7isOneOfINS_3tok9TokenKindENS0_9TokenTypeEEEbT_T0_(ptr noundef nonnull align 8 dereferenceable(305) %0, i16 noundef zeroext %1, i8 noundef zeroext %2) #0 comdat align 2 {
  %4 = alloca ptr, align 8
  %5 = alloca i16, align 2
  %6 = alloca i8, align 1
  store ptr %0, ptr %4, align 8
  store i16 %1, ptr %5, align 2
  store i8 %2, ptr %6, align 1
  %7 = load ptr, ptr %4, align 8
  %8 = load i16, ptr %5, align 2
  %9 = call noundef zeroext i1 @_ZNK5clang6format11FormatToken2isENS_3tok9TokenKindE(ptr noundef nonnull align 8 dereferenceable(305) %7, i16 noundef zeroext %8)
  br i1 %9, label %13, label %10

10:                                               ; preds = %3
  %11 = load i8, ptr %6, align 1
  %12 = call noundef zeroext i1 @_ZNK5clang6format11FormatToken2isENS0_9TokenTypeE(ptr noundef nonnull align 8 dereferenceable(305) %7, i8 noundef zeroext %11)
  br label %13

13:                                               ; preds = %10, %3
  %14 = phi i1 [ true, %3 ], [ %12, %10 ]
  ret i1 %14
}

; Function Attrs: mustprogress nounwind uwtable
define linkonce_odr hidden noundef zeroext i1 @_ZNK5clang6format11FormatToken7isOneOfINS_3tok9TokenKindES4_EEbT_T0_(ptr noundef nonnull align 8 dereferenceable(305) %0, i16 noundef zeroext %1, i16 noundef zeroext %2) #0 comdat align 2 {
  %4 = alloca ptr, align 8
  %5 = alloca i16, align 2
  %6 = alloca i16, align 2
  store ptr %0, ptr %4, align 8
  store i16 %1, ptr %5, align 2
  store i16 %2, ptr %6, align 2
  %7 = load ptr, ptr %4, align 8
  %8 = load i16, ptr %5, align 2
  %9 = call noundef zeroext i1 @_ZNK5clang6format11FormatToken2isENS_3tok9TokenKindE(ptr noundef nonnull align 8 dereferenceable(305) %7, i16 noundef zeroext %8)
  br i1 %9, label %13, label %10

10:                                               ; preds = %3
  %11 = load i16, ptr %6, align 2
  %12 = call noundef zeroext i1 @_ZNK5clang6format11FormatToken2isENS_3tok9TokenKindE(ptr noundef nonnull align 8 dereferenceable(305) %7, i16 noundef zeroext %11)
  br label %13

13:                                               ; preds = %10, %3
  %14 = phi i1 [ true, %3 ], [ %12, %10 ]
  ret i1 %14
}

; Function Attrs: mustprogress nounwind uwtable
define linkonce_odr hidden noundef ptr @_ZNK5clang6format11FormatToken17getNextNonCommentEv(ptr noundef nonnull align 8 dereferenceable(305) %0) #0 comdat align 2 {
  %2 = alloca ptr, align 8
  %3 = alloca ptr, align 8
  store ptr %0, ptr %2, align 8
  %4 = load ptr, ptr %2, align 8
  %5 = getelementptr inbounds nuw %"struct.clang::format::FormatToken", ptr %4, i32 0, i32 35
  %6 = load ptr, ptr %5, align 8
  store ptr %6, ptr %3, align 8
  br label %7

7:                                                ; preds = %15, %1
  %8 = load ptr, ptr %3, align 8
  %9 = icmp ne ptr %8, null
  br i1 %9, label %10, label %13

10:                                               ; preds = %7
  %11 = load ptr, ptr %3, align 8
  %12 = call noundef zeroext i1 @_ZNK5clang6format11FormatToken2isENS_3tok9TokenKindE(ptr noundef nonnull align 8 dereferenceable(305) %11, i16 noundef zeroext 4)
  br label %13

13:                                               ; preds = %10, %7
  %14 = phi i1 [ false, %7 ], [ %12, %10 ]
  br i1 %14, label %15, label %19

15:                                               ; preds = %13
  %16 = load ptr, ptr %3, align 8
  %17 = getelementptr inbounds nuw %"struct.clang::format::FormatToken", ptr %16, i32 0, i32 35
  %18 = load ptr, ptr %17, align 8
  store ptr %18, ptr %3, align 8
  br label %7, !llvm.loop !18

19:                                               ; preds = %13
  %20 = load ptr, ptr %3, align 8
  ret ptr %20
}

; Function Attrs: mustprogress nounwind uwtable
define linkonce_odr hidden noundef zeroext i1 @_ZNK5clang6format11FormatToken2isENS_3tok9TokenKindE(ptr noundef nonnull align 8 dereferenceable(305) %0, i16 noundef zeroext %1) #0 comdat align 2 {
  %3 = alloca ptr, align 8
  %4 = alloca i16, align 2
  store ptr %0, ptr %3, align 8
  store i16 %1, ptr %4, align 2
  %5 = load ptr, ptr %3, align 8
  %6 = getelementptr inbounds nuw %"struct.clang::format::FormatToken", ptr %5, i32 0, i32 0
  %7 = load i16, ptr %4, align 2
  %8 = call noundef zeroext i1 @_ZNK5clang5Token2isENS_3tok9TokenKindE(ptr noundef nonnull align 8 dereferenceable(20) %6, i16 noundef zeroext %7)
  ret i1 %8
}

; Function Attrs: mustprogress nounwind uwtable
define linkonce_odr hidden noundef ptr @_ZNK4llvm25SmallVectorTemplateCommonIPN5clang6format13AnnotatedLineEvE5beginEv(ptr noundef nonnull align 8 dereferenceable(16) %0) #0 comdat align 2 {
  %2 = alloca ptr, align 8
  store ptr %0, ptr %2, align 8
  %3 = load ptr, ptr %2, align 8
  %4 = getelementptr inbounds nuw %"class.llvm::SmallVectorBase", ptr %3, i32 0, i32 0
  %5 = load ptr, ptr %4, align 8
  ret ptr %5
}

; Function Attrs: mustprogress nounwind uwtable
define linkonce_odr hidden noundef zeroext i1 @_ZNK5clang6format11FormatToken14startsSequenceINS_3tok9TokenKindEJEEEbT_DpT0_(ptr noundef nonnull align 8 dereferenceable(305) %0, i16 noundef zeroext %1) #0 comdat align 2 {
  %3 = alloca ptr, align 8
  %4 = alloca i16, align 2
  store ptr %0, ptr %3, align 8
  store i16 %1, ptr %4, align 2
  %5 = load ptr, ptr %3, align 8
  %6 = load i16, ptr %4, align 2
  %7 = call noundef zeroext i1 @_ZNK5clang6format11FormatToken22startsSequenceInternalINS_3tok9TokenKindEEEbT_(ptr noundef nonnull align 8 dereferenceable(305) %5, i16 noundef zeroext %6)
  ret i1 %7
}

; Function Attrs: mustprogress nounwind uwtable
define linkonce_odr hidden noundef ptr @_ZNK5clang6format11FormatToken17getNamespaceTokenEv(ptr noundef nonnull align 8 dereferenceable(305) %0) #0 comdat align 2 {
  %2 = alloca ptr, align 8
  %3 = alloca ptr, align 8
  store ptr %0, ptr %2, align 8
  %4 = load ptr, ptr %2, align 8
  store ptr %4, ptr %3, align 8
  %5 = call noundef zeroext i1 @_ZNK5clang6format11FormatToken2isENS_3tok9TokenKindE(ptr noundef nonnull align 8 dereferenceable(305) %4, i16 noundef zeroext 4)
  br i1 %5, label %6, label %9

6:                                                ; preds = %1
  %7 = load ptr, ptr %3, align 8
  %8 = call noundef ptr @_ZNK5clang6format11FormatToken17getNextNonCommentEv(ptr noundef nonnull align 8 dereferenceable(305) %7)
  store ptr %8, ptr %3, align 8
  br label %9

9:                                                ; preds = %6, %1
  %10 = load ptr, ptr %3, align 8
  %11 = icmp ne ptr %10, null
  br i1 %11, label %12, label %18

12:                                               ; preds = %9
  %13 = load ptr, ptr %3, align 8
  %14 = call noundef zeroext i1 @_ZNK5clang6format11FormatToken7isOneOfINS_3tok9TokenKindES4_EEbT_T0_(ptr noundef nonnull align 8 dereferenceable(305) %13, i16 noundef zeroext 156, i16 noundef zeroext 133)
  br i1 %14, label %15, label %18

15:                                               ; preds = %12
  %16 = load ptr, ptr %3, align 8
  %17 = call noundef ptr @_ZNK5clang6format11FormatToken17getNextNonCommentEv(ptr noundef nonnull align 8 dereferenceable(305) %16)
  store ptr %17, ptr %3, align 8
  br label %18

18:                                               ; preds = %15, %12, %9
  %19 = load ptr, ptr %3, align 8
  %20 = icmp ne ptr %19, null
  br i1 %20, label %21, label %26

21:                                               ; preds = %18
  %22 = load ptr, ptr %3, align 8
  %23 = call noundef zeroext i1 @_ZNK5clang6format11FormatToken7isOneOfINS_3tok9TokenKindENS0_9TokenTypeEEEbT_T0_(ptr noundef nonnull align 8 dereferenceable(305) %22, i16 noundef zeroext 137, i8 noundef zeroext 80)
  br i1 %23, label %24, label %26

24:                                               ; preds = %21
  %25 = load ptr, ptr %3, align 8
  br label %27

26:                                               ; preds = %21, %18
  br label %27

27:                                               ; preds = %26, %24
  %28 = phi ptr [ %25, %24 ], [ null, %26 ]
  ret ptr %28
}

; Function Attrs: mustprogress nounwind uwtable
define linkonce_odr hidden noundef nonnull align 8 dereferenceable(8) ptr @_ZNK4llvm25SmallVectorTemplateCommonIPN5clang6format13AnnotatedLineEvEixEm(ptr noundef nonnull align 8 dereferenceable(16) %0, i64 noundef %1) #0 comdat align 2 {
  %3 = alloca ptr, align 8
  %4 = alloca i64, align 8
  store ptr %0, ptr %3, align 8
  store i64 %1, ptr %4, align 8
  %5 = load ptr, ptr %3, align 8
  %6 = call noundef ptr @_ZNK4llvm25SmallVectorTemplateCommonIPN5clang6format13AnnotatedLineEvE5beginEv(ptr noundef nonnull align 8 dereferenceable(16) %5)
  %7 = load i64, ptr %4, align 8
  %8 = getelementptr inbounds ptr, ptr %6, i64 %7
  ret ptr %8
}

; Function Attrs: mustprogress nounwind uwtable
define linkonce_odr hidden noundef zeroext i1 @_ZNK5clang6format13AnnotatedLine10startsWithIJNS_3tok9TokenKindEEEEbDpT_(ptr noundef nonnull align 8 dereferenceable(80) %0, i16 noundef zeroext %1) #0 comdat align 2 {
  %3 = alloca ptr, align 8
  %4 = alloca i16, align 2
  store ptr %0, ptr %3, align 8
  store i16 %1, ptr %4, align 2
  %5 = load ptr, ptr %3, align 8
  %6 = getelementptr inbounds nuw %"class.clang::format::AnnotatedLine", ptr %5, i32 0, i32 0
  %7 = load ptr, ptr %6, align 8
  %8 = icmp ne ptr %7, null
  br i1 %8, label %9, label %14

9:                                                ; preds = %2
  %10 = getelementptr inbounds nuw %"class.clang::format::AnnotatedLine", ptr %5, i32 0, i32 0
  %11 = load ptr, ptr %10, align 8
  %12 = load i16, ptr %4, align 2
  %13 = call noundef zeroext i1 @_ZNK5clang6format11FormatToken14startsSequenceINS_3tok9TokenKindEJEEEbT_DpT0_(ptr noundef nonnull align 8 dereferenceable(305) %11, i16 noundef zeroext %12)
  br label %14

14:                                               ; preds = %9, %2
  %15 = phi i1 [ false, %2 ], [ %13, %9 ]
  ret i1 %15
}

; Function Attrs: mustprogress nounwind uwtable
define internal noundef ptr @_ZN5clang6format12_GLOBAL__N_125getMatchingNamespaceTokenEPKNS0_13AnnotatedLineERKN4llvm15SmallVectorImplIPS2_EE(ptr noundef %0, ptr noundef nonnull align 8 dereferenceable(16) %1) #0 {
  %3 = alloca ptr, align 8
  %4 = alloca ptr, align 8
  %5 = alloca ptr, align 8
  %6 = alloca i64, align 8
  store ptr %0, ptr %4, align 8
  store ptr %1, ptr %5, align 8
  %7 = load ptr, ptr %4, align 8
  %8 = call noundef zeroext i1 @_ZNK5clang6format13AnnotatedLine10startsWithIJNS_3tok9TokenKindEEEEbDpT_(ptr noundef nonnull align 8 dereferenceable(80) %7, i16 noundef zeroext 25)
  br i1 %8, label %10, label %9

9:                                                ; preds = %2
  store ptr null, ptr %3, align 8
  br label %25

10:                                               ; preds = %2
  %11 = load ptr, ptr %4, align 8
  %12 = getelementptr inbounds nuw %"class.clang::format::AnnotatedLine", ptr %11, i32 0, i32 6
  %13 = load i64, ptr %12, align 8
  store i64 %13, ptr %6, align 8
  %14 = load i64, ptr %6, align 8
  %15 = icmp eq i64 %14, -1
  br i1 %15, label %16, label %17

16:                                               ; preds = %10
  store ptr null, ptr %3, align 8
  br label %25

17:                                               ; preds = %10
  %18 = load ptr, ptr %5, align 8
  %19 = load i64, ptr %6, align 8
  %20 = call noundef nonnull align 8 dereferenceable(8) ptr @_ZNK4llvm25SmallVectorTemplateCommonIPN5clang6format13AnnotatedLineEvEixEm(ptr noundef nonnull align 8 dereferenceable(16) %18, i64 noundef %19)
  %21 = load ptr, ptr %20, align 8
  %22 = getelementptr inbounds nuw %"class.clang::format::AnnotatedLine", ptr %21, i32 0, i32 0
  %23 = load ptr, ptr %22, align 8
  %24 = call noundef ptr @_ZNK5clang6format11FormatToken17getNamespaceTokenEv(ptr noundef nonnull align 8 dereferenceable(305) %23)
  store ptr %24, ptr %3, align 8
  br label %25

25:                                               ; preds = %17, %16, %9
  %26 = load ptr, ptr %3, align 8
  ret ptr %26
}