; Function Attrs: mustprogress nofree norecurse nosync nounwind willreturn memory(read, inaccessiblemem: none) uwtable
define internal fastcc noundef ptr @_ZN5clang6format12_GLOBAL__N_125getMatchingNamespaceTokenEPKNS0_13AnnotatedLineERKN4llvm15SmallVectorImplIPS2_EE(ptr noundef readonly captures(none) %0, ptr readonly captures(none) %.0.val) unnamed_addr #2 {
  %2 = load ptr, ptr %0, align 8
  %.not.i = icmp eq ptr %2, null
  br i1 %.not.i, label %_ZNK5clang6format11FormatToken17getNamespaceTokenEv.exit, label %tailrecurse.i.i.i

tailrecurse.i.i.i:                                ; preds = %1, %5
  %.tr.i.i.i = phi ptr [ %7, %5 ], [ %2, %1 ]
  %3 = getelementptr inbounds nuw i8, ptr %.tr.i.i.i, i64 16
  %4 = load i16, ptr %3, align 8
  switch i16 %4, label %_ZNK5clang6format11FormatToken17getNamespaceTokenEv.exit [
    i16 4, label %5
    i16 25, label %8
  ]

5:                                                ; preds = %tailrecurse.i.i.i
  %6 = getelementptr inbounds nuw i8, ptr %.tr.i.i.i, i64 216
  %7 = load ptr, ptr %6, align 8
  %.not.i.i.i = icmp eq ptr %7, null
  br i1 %.not.i.i.i, label %_ZNK5clang6format11FormatToken17getNamespaceTokenEv.exit, label %tailrecurse.i.i.i

8:                                                ; preds = %tailrecurse.i.i.i
  %9 = getelementptr inbounds nuw i8, ptr %0, i64 48
  %10 = load i64, ptr %9, align 8
  %11 = icmp eq i64 %10, -1
  br i1 %11, label %_ZNK5clang6format11FormatToken17getNamespaceTokenEv.exit, label %12

12:                                               ; preds = %8
  %13 = getelementptr inbounds ptr, ptr %.0.val, i64 %10
  %14 = load ptr, ptr %13, align 8
  %15 = load ptr, ptr %14, align 8
  %16 = getelementptr inbounds nuw i8, ptr %15, i64 16
  %17 = load i16, ptr %16, align 8
  %18 = icmp eq i16 %17, 4
  br i1 %18, label %.preheader.i, label %.loopexit.i

.preheader.i:                                     ; preds = %12, %19
  %.pn.i.i = phi ptr [ %.0.i.i, %19 ], [ %15, %12 ]
  %.0.in.i.i = getelementptr inbounds nuw i8, ptr %.pn.i.i, i64 216
  %.0.i.i = load ptr, ptr %.0.in.i.i, align 8
  %.not.i.i = icmp eq ptr %.0.i.i, null
  br i1 %.not.i.i, label %_ZNK5clang6format11FormatToken17getNamespaceTokenEv.exit, label %19

19:                                               ; preds = %.preheader.i
  %20 = getelementptr inbounds nuw i8, ptr %.0.i.i, i64 16
  %21 = load i16, ptr %20, align 8
  %22 = icmp eq i16 %21, 4
  br i1 %22, label %.preheader.i, label %.loopexit.i, !llvm.loop !12

.loopexit.i:                                      ; preds = %19, %12
  %23 = phi i16 [ %17, %12 ], [ %21, %19 ]
  %.0.ph.i = phi ptr [ %15, %12 ], [ %.0.i.i, %19 ]
  switch i16 %23, label %_ZNK5clang6format11FormatToken17getNextNonCommentEv.exit.i [
    i16 156, label %.preheader
    i16 133, label %.preheader
  ]

.preheader:                                       ; preds = %.loopexit.i, %.loopexit.i
  br label %24

24:                                               ; preds = %.preheader, %25
  %.pn.i9.i = phi ptr [ %.0.i11.i, %25 ], [ %.0.ph.i, %.preheader ]
  %.0.in.i10.i = getelementptr inbounds nuw i8, ptr %.pn.i9.i, i64 216
  %.0.i11.i = load ptr, ptr %.0.in.i10.i, align 8
  %.not.i12.i = icmp eq ptr %.0.i11.i, null
  br i1 %.not.i12.i, label %_ZNK5clang6format11FormatToken17getNamespaceTokenEv.exit, label %25

25:                                               ; preds = %24
  %26 = getelementptr inbounds nuw i8, ptr %.0.i11.i, i64 16
  %27 = load i16, ptr %26, align 8
  %28 = icmp eq i16 %27, 4
  br i1 %28, label %24, label %_ZNK5clang6format11FormatToken17getNextNonCommentEv.exit.i, !llvm.loop !12

_ZNK5clang6format11FormatToken17getNextNonCommentEv.exit.i: ; preds = %25, %.loopexit.i
  %29 = phi i16 [ %23, %.loopexit.i ], [ %27, %25 ]
  %.1.i = phi ptr [ %.0.ph.i, %.loopexit.i ], [ %.0.i11.i, %25 ]
  %30 = icmp eq i16 %29, 137
  %31 = getelementptr inbounds nuw i8, ptr %.1.i, i64 67
  %32 = load i8, ptr %31, align 1
  %33 = icmp eq i8 %32, 80
  %34 = select i1 %30, i1 true, i1 %33
  %spec.select.i = select i1 %34, ptr %.1.i, ptr null
  br label %_ZNK5clang6format11FormatToken17getNamespaceTokenEv.exit

_ZNK5clang6format11FormatToken17getNamespaceTokenEv.exit: ; preds = %tailrecurse.i.i.i, %5, %.preheader.i, %24, %1, %_ZNK5clang6format11FormatToken17getNextNonCommentEv.exit.i, %8
  %.0 = phi ptr [ null, %8 ], [ %spec.select.i, %_ZNK5clang6format11FormatToken17getNextNonCommentEv.exit.i ], [ null, %1 ], [ null, %24 ], [ null, %.preheader.i ], [ null, %5 ], [ null, %tailrecurse.i.i.i ]
  ret ptr %.0
}